; Function Attrs: mustprogress nounwind uwtable
define hidden void @_ZN27JvmtiVTMSTransitionDisabler30VTMS_transition_enable_for_oneEv(ptr nocapture noundef nonnull readonly align 8 dereferenceable(16) %0) local_unnamed_addr #0 align 2 {
  %2 = alloca %class.HandleMark, align 8
  %3 = tail call align 8 ptr @llvm.threadlocal.address.p0(ptr align 8 @_ZN6Thread12_thr_currentE)
  %4 = load ptr, ptr %3, align 8
  call void @_ZN10HandleMark10initializeEP6Thread(ptr noundef nonnull align 8 dereferenceable(56) %2, ptr noundef %4) #13
  %5 = getelementptr inbounds i8, ptr %0, i64 8
  %6 = load ptr, ptr %5, align 8
  %7 = call noundef ptr @_ZN10JNIHandles22resolve_external_guardEP8_jobject(ptr noundef %6) #13
  %8 = icmp eq ptr %7, null
  br i1 %8, label %_ZNK6HandleclEv.exit, label %9

9:                                                ; preds = %1
  %10 = getelementptr inbounds i8, ptr %4, i64 808
  %11 = load ptr, ptr %10, align 8
  %12 = getelementptr inbounds i8, ptr %11, i64 40
  %13 = load ptr, ptr %12, align 8
  %14 = getelementptr inbounds i8, ptr %11, i64 32
  %15 = load ptr, ptr %14, align 8
  %16 = ptrtoint ptr %13 to i64
  %17 = ptrtoint ptr %15 to i64
  %18 = sub i64 %16, %17
  %.not.i.i.i.i = icmp ult i64 %18, 8
  br i1 %.not.i.i.i.i, label %21, label %19

19:                                               ; preds = %9
  %20 = getelementptr inbounds i8, ptr %15, i64 8
  store ptr %20, ptr %14, align 8
  br label %_ZN6HandleC2EP6ThreadP7oopDesc.exit

21:                                               ; preds = %9
  %22 = call noundef ptr @_ZN5Arena4growEmN17AllocFailStrategy13AllocFailEnumE(ptr noundef nonnull align 8 dereferenceable(48) %11, i64 noundef 8, i32 noundef 0) #13
  br label %_ZN6HandleC2EP6ThreadP7oopDesc.exit

_ZN6HandleC2EP6ThreadP7oopDesc.exit:              ; preds = %19, %21
  %.0.i.i.i.i = phi ptr [ %15, %19 ], [ %22, %21 ]
  store ptr %7, ptr %.0.i.i.i.i, align 8
  br label %_ZNK6HandleclEv.exit

_ZNK6HandleclEv.exit:                             ; preds = %1, %_ZN6HandleC2EP6ThreadP7oopDesc.exit
  %storemerge.i9 = phi ptr [ %.0.i.i.i.i, %_ZN6HandleC2EP6ThreadP7oopDesc.exit ], [ null, %1 ]
  %23 = call noundef zeroext i1 @_ZN23java_lang_VirtualThread11is_instanceEP7oopDesc(ptr noundef %7) #13
  br i1 %23, label %24, label %_ZN13MonitorLockerD2Ev.exit

24:                                               ; preds = %_ZNK6HandleclEv.exit
  %25 = load ptr, ptr @JvmtiVTMSTransition_lock, align 8
  %.not.i.i = icmp eq ptr %25, null
  br i1 %.not.i.i, label %_ZN13MonitorLockerC2EP7MonitorN5Mutex18SafepointCheckFlagE.exit, label %26

26:                                               ; preds = %24
  call void @_ZN5Mutex4lockEv(ptr noundef nonnull align 8 dereferenceable(104) %25) #13
  br label %_ZN13MonitorLockerC2EP7MonitorN5Mutex18SafepointCheckFlagE.exit

_ZN13MonitorLockerC2EP7MonitorN5Mutex18SafepointCheckFlagE.exit: ; preds = %24, %26
  br i1 %8, label %_ZNK6HandleclEv.exit3, label %27

27:                                               ; preds = %_ZN13MonitorLockerC2EP7MonitorN5Mutex18SafepointCheckFlagE.exit
  %28 = load ptr, ptr %storemerge.i9, align 8
  br label %_ZNK6HandleclEv.exit3

_ZNK6HandleclEv.exit3:                            ; preds = %_ZN13MonitorLockerC2EP7MonitorN5Mutex18SafepointCheckFlagE.exit, %27
  %29 = phi ptr [ %28, %27 ], [ null, %_ZN13MonitorLockerC2EP7MonitorN5Mutex18SafepointCheckFlagE.exit ]
  call void @_ZN16java_lang_Thread33dec_VTMS_transition_disable_countEP7oopDesc(ptr noundef %29) #13
  %30 = call noundef i32 asm sideeffect "lock xaddl $0,($2)", "=r,0,r,~{cc},~{memory},~{dirflag},~{fpsr},~{flags}"(i32 -1, ptr nonnull @_ZN27JvmtiVTMSTransitionDisabler38_VTMS_transition_disable_for_one_countE) #13, !srcloc !12
  %31 = load volatile i32, ptr @_ZN27JvmtiVTMSTransitionDisabler38_VTMS_transition_disable_for_one_countE, align 4
  %32 = icmp eq i32 %31, 0
  br i1 %32, label %33, label %34

33:                                               ; preds = %_ZNK6HandleclEv.exit3
  call void @_ZN7Monitor10notify_allEv(ptr noundef nonnull align 8 dereferenceable(104) %25) #13
  br label %34

34:                                               ; preds = %33, %_ZNK6HandleclEv.exit3
  br i1 %.not.i.i, label %_ZN13MonitorLockerD2Ev.exit, label %35

35:                                               ; preds = %34
  call void @_ZN5Mutex6unlockEv(ptr noundef nonnull align 8 dereferenceable(104) %25) #13
  br label %_ZN13MonitorLockerD2Ev.exit

_ZN13MonitorLockerD2Ev.exit:                      ; preds = %35, %34, %_ZNK6HandleclEv.exit
  call void @_ZN10HandleMarkD1Ev(ptr noundef nonnull align 8 dereferenceable(56) %2) #13
  ret void
}